target datalayout = "e-m:e-p270:32:32-p271:32:32-p272:64:64-i64:64-i128:128-f80:128-n8:16:32:64-S128"
target triple = "x86_64-pc-linux-gnu"

%struct.ScanKeyData = type { i32, i16, i16, i32, i32, %struct.FmgrInfo, i64 }
%struct.FmgrInfo = type { ptr, i32, i16, i8, i8, i8, ptr, ptr, ptr }
%struct.RelationData = type { %struct.RelFileLocator, ptr, i32, i32, i8, i8, i8, i8, i8, i32, i32, i32, i32, ptr, ptr, i32, %struct.LockInfoData, ptr, ptr, ptr, ptr, ptr, i8, ptr, ptr, ptr, ptr, ptr, ptr, i32, ptr, i8, ptr, ptr, i32, i8, i32, ptr, i8, ptr, ptr, ptr, ptr, ptr, ptr, ptr, i32, ptr, ptr, ptr, ptr, ptr, ptr, ptr, ptr, ptr, ptr, ptr, ptr, ptr, ptr, ptr, ptr, ptr, ptr, ptr, i32, i8, ptr }
%struct.RelFileLocator = type { i32, i32, i32 }
%struct.LockInfoData = type { %struct.LockRelId }
%struct.LockRelId = type { i32, i32 }
%struct.FormData_pg_class = type { i32, %struct.nameData, i32, i32, i32, i32, i32, i32, i32, i32, float, i32, i32, i8, i8, i8, i8, i16, i16, i8, i8, i8, i8, i8, i8, i8, i8, i32, i32, i32 }
%struct.nameData = type { [64 x i8] }
%struct.FormData_pg_policy = type { i32, %struct.nameData, i32, i8, i8 }
%struct.HeapTupleData = type { i32, %struct.ItemPointerData, i32, ptr }
%struct.ItemPointerData = type { %struct.BlockIdData, i16 }
%struct.BlockIdData = type { i16, i16 }
%struct.HeapTupleHeaderData = type { %union.anon, %struct.ItemPointerData, i16, i16, i8, [0 x i8] }
%union.anon = type { %struct.HeapTupleFields }
%struct.HeapTupleFields = type { i32, i32, %union.anon.0 }
%union.anon.0 = type { i32 }
%struct.ObjectAddress = type { i32, i32, i32 }
%struct.RenameStmt = type { i32, i32, i32, ptr, ptr, ptr, ptr, i32, i8 }

@.str.2 = private unnamed_addr constant [9 x i8] c"policy.c\00", align 1
@object_access_hook = external global ptr, align 8
@.str.9 = private unnamed_addr constant [42 x i8] c"policy \22%s\22 for table \22%s\22 already exists\00", align 1
@.str.10 = private unnamed_addr constant [42 x i8] c"policy \22%s\22 for table \22%s\22 does not exist\00", align 1
@__func__.rename_policy = private unnamed_addr constant [14 x i8] c"rename_policy\00", align 1

; Function Attrs: inlinehint nounwind uwtable
define internal i64 @PointerGetDatum(ptr noundef %0) #3 {
  %2 = alloca ptr, align 8
  store ptr %0, ptr %2, align 8
  %3 = load ptr, ptr %2, align 8
  %4 = ptrtoint ptr %3 to i64
  ret i64 %4
}

; Function Attrs: inlinehint nounwind uwtable
define internal ptr @GETSTRUCT(ptr noundef %0) #3 {
  %2 = alloca ptr, align 8
  store ptr %0, ptr %2, align 8
  %3 = load ptr, ptr %2, align 8
  %4 = getelementptr inbounds nuw %struct.HeapTupleData, ptr %3, i32 0, i32 3
  %5 = load ptr, ptr %4, align 8
  %6 = load ptr, ptr %2, align 8
  %7 = getelementptr inbounds nuw %struct.HeapTupleData, ptr %6, i32 0, i32 3
  %8 = load ptr, ptr %7, align 8
  %9 = getelementptr inbounds nuw %struct.HeapTupleHeaderData, ptr %8, i32 0, i32 4
  %10 = load i8, ptr %9, align 2
  %11 = zext i8 %10 to i32
  %12 = sext i32 %11 to i64
  %13 = getelementptr inbounds i8, ptr %5, i64 %12
  ret ptr %13
}

; Function Attrs: inlinehint nounwind uwtable
define internal i64 @CStringGetDatum(ptr noundef %0) #3 {
  %2 = alloca ptr, align 8
  store ptr %0, ptr %2, align 8
  %3 = load ptr, ptr %2, align 8
  %4 = call i64 @PointerGetDatum(ptr noundef %3)
  ret i64 %4
}

; Function Attrs: inlinehint nounwind uwtable
define internal i64 @ObjectIdGetDatum(i32 noundef %0) #3 {
  %2 = alloca i32, align 4
  store i32 %0, ptr %2, align 4
  %3 = load i32, ptr %2, align 4
  %4 = zext i32 %3 to i64
  ret i64 %4
}

; Function Attrs: nounwind uwtable
define dso_local { i64, i32 } @rename_policy(ptr noundef %0) #0 {
  %2 = alloca %struct.ObjectAddress, align 4
  %3 = alloca ptr, align 8
  %4 = alloca ptr, align 8
  %5 = alloca ptr, align 8
  %6 = alloca i32, align 4
  %7 = alloca i32, align 4
  %8 = alloca [2 x %struct.ScanKeyData], align 16
  %9 = alloca ptr, align 8
  %10 = alloca ptr, align 8
  %11 = alloca { i64, i32 }, align 8
  store ptr %0, ptr %3, align 8
  call void @llvm.lifetime.start.p0(i64 8, ptr %4) #8
  call void @llvm.lifetime.start.p0(i64 8, ptr %5) #8
  call void @llvm.lifetime.start.p0(i64 4, ptr %6) #8
  call void @llvm.lifetime.start.p0(i64 4, ptr %7) #8
  call void @llvm.lifetime.start.p0(i64 144, ptr %8) #8
  call void @llvm.lifetime.start.p0(i64 8, ptr %9) #8
  call void @llvm.lifetime.start.p0(i64 8, ptr %10) #8
  %12 = load ptr, ptr %3, align 8
  %13 = getelementptr inbounds nuw %struct.RenameStmt, ptr %12, i32 0, i32 3
  %14 = load ptr, ptr %13, align 8
  %15 = load ptr, ptr %3, align 8
  %16 = call i32 @RangeVarGetRelidExtended(ptr noundef %14, i32 noundef 8, i32 noundef 0, ptr noundef @RangeVarCallbackForPolicy, ptr noundef %15)
  store i32 %16, ptr %6, align 4
  %17 = load i32, ptr %6, align 4
  %18 = call ptr @relation_open(i32 noundef %17, i32 noundef 0)
  store ptr %18, ptr %5, align 8
  %19 = call ptr @table_open(i32 noundef 3256, i32 noundef 3)
  store ptr %19, ptr %4, align 8
  %20 = getelementptr inbounds [2 x %struct.ScanKeyData], ptr %8, i64 0, i64 0
  %21 = load i32, ptr %6, align 4
  %22 = call i64 @ObjectIdGetDatum(i32 noundef %21)
  call void @ScanKeyInit(ptr noundef %20, i16 noundef signext 3, i16 noundef zeroext 3, i32 noundef 184, i64 noundef %22)
  %23 = getelementptr inbounds [2 x %struct.ScanKeyData], ptr %8, i64 0, i64 1
  %24 = load ptr, ptr %3, align 8
  %25 = getelementptr inbounds nuw %struct.RenameStmt, ptr %24, i32 0, i32 6
  %26 = load ptr, ptr %25, align 8
  %27 = call i64 @CStringGetDatum(ptr noundef %26)
  call void @ScanKeyInit(ptr noundef %23, i16 noundef signext 2, i16 noundef zeroext 3, i32 noundef 62, i64 noundef %27)
  %28 = load ptr, ptr %4, align 8
  %29 = getelementptr inbounds [2 x %struct.ScanKeyData], ptr %8, i64 0, i64 0
  %30 = call ptr @systable_beginscan(ptr noundef %28, i32 noundef 3258, i1 noundef zeroext true, ptr noundef null, i32 noundef 2, ptr noundef %29)
  store ptr %30, ptr %9, align 8
  %31 = load ptr, ptr %9, align 8
  %32 = call ptr @systable_getnext(ptr noundef %31)
  %33 = icmp ne ptr %32, null
  br i1 %33, label %34, label %55

34:                                               ; preds = %1
  br label %35

35:                                               ; preds = %34
  br i1 true, label %36, label %38

36:                                               ; preds = %35
  %37 = call zeroext i1 @errstart_cold(i32 noundef 21, ptr noundef null) #9
  br i1 %37, label %40, label %52

38:                                               ; preds = %35
  %39 = call zeroext i1 @errstart(i32 noundef 21, ptr noundef null)
  br i1 %39, label %40, label %52

40:                                               ; preds = %38, %36
  %41 = call i32 @errcode(i32 noundef 290948)
  %42 = load ptr, ptr %3, align 8
  %43 = getelementptr inbounds nuw %struct.RenameStmt, ptr %42, i32 0, i32 6
  %44 = load ptr, ptr %43, align 8
  %45 = load ptr, ptr %5, align 8
  %46 = getelementptr inbounds nuw %struct.RelationData, ptr %45, i32 0, i32 13
  %47 = load ptr, ptr %46, align 8
  %48 = getelementptr inbounds nuw %struct.FormData_pg_class, ptr %47, i32 0, i32 1
  %49 = getelementptr inbounds nuw %struct.nameData, ptr %48, i32 0, i32 0
  %50 = getelementptr inbounds [64 x i8], ptr %49, i64 0, i64 0
  %51 = call i32 (ptr, ...) @errmsg(ptr noundef @.str.9, ptr noundef %44, ptr noundef %50)
  call void @errfinish(ptr noundef @.str.2, i32 noundef 1139, ptr noundef @__func__.rename_policy)
  br label %52

52:                                               ; preds = %40, %38, %36
  unreachable

53:                                               ; No predecessors!
  br label %54

54:                                               ; preds = %53
  br label %55

55:                                               ; preds = %54, %1
  %56 = load ptr, ptr %9, align 8
  call void @systable_endscan(ptr noundef %56)
  %57 = getelementptr inbounds [2 x %struct.ScanKeyData], ptr %8, i64 0, i64 0
  %58 = load i32, ptr %6, align 4
  %59 = call i64 @ObjectIdGetDatum(i32 noundef %58)
  call void @ScanKeyInit(ptr noundef %57, i16 noundef signext 3, i16 noundef zeroext 3, i32 noundef 184, i64 noundef %59)
  %60 = getelementptr inbounds [2 x %struct.ScanKeyData], ptr %8, i64 0, i64 1
  %61 = load ptr, ptr %3, align 8
  %62 = getelementptr inbounds nuw %struct.RenameStmt, ptr %61, i32 0, i32 5
  %63 = load ptr, ptr %62, align 8
  %64 = call i64 @CStringGetDatum(ptr noundef %63)
  call void @ScanKeyInit(ptr noundef %60, i16 noundef signext 2, i16 noundef zeroext 3, i32 noundef 62, i64 noundef %64)
  %65 = load ptr, ptr %4, align 8
  %66 = getelementptr inbounds [2 x %struct.ScanKeyData], ptr %8, i64 0, i64 0
  %67 = call ptr @systable_beginscan(ptr noundef %65, i32 noundef 3258, i1 noundef zeroext true, ptr noundef null, i32 noundef 2, ptr noundef %66)
  store ptr %67, ptr %9, align 8
  %68 = load ptr, ptr %9, align 8
  %69 = call ptr @systable_getnext(ptr noundef %68)
  store ptr %69, ptr %10, align 8
  %70 = load ptr, ptr %10, align 8
  %71 = icmp ne ptr %70, null
  br i1 %71, label %93, label %72

72:                                               ; preds = %55
  br label %73

73:                                               ; preds = %72
  br i1 true, label %74, label %76

74:                                               ; preds = %73
  %75 = call zeroext i1 @errstart_cold(i32 noundef 21, ptr noundef null) #9
  br i1 %75, label %78, label %90

76:                                               ; preds = %73
  %77 = call zeroext i1 @errstart(i32 noundef 21, ptr noundef null)
  br i1 %77, label %78, label %90

78:                                               ; preds = %76, %74
  %79 = call i32 @errcode(i32 noundef 67137668)
  %80 = load ptr, ptr %3, align 8
  %81 = getelementptr inbounds nuw %struct.RenameStmt, ptr %80, i32 0, i32 5
  %82 = load ptr, ptr %81, align 8
  %83 = load ptr, ptr %5, align 8
  %84 = getelementptr inbounds nuw %struct.RelationData, ptr %83, i32 0, i32 13
  %85 = load ptr, ptr %84, align 8
  %86 = getelementptr inbounds nuw %struct.FormData_pg_class, ptr %85, i32 0, i32 1
  %87 = getelementptr inbounds nuw %struct.nameData, ptr %86, i32 0, i32 0
  %88 = getelementptr inbounds [64 x i8], ptr %87, i64 0, i64 0
  %89 = call i32 (ptr, ...) @errmsg(ptr noundef @.str.10, ptr noundef %82, ptr noundef %88)
  call void @errfinish(ptr noundef @.str.2, i32 noundef 1167, ptr noundef @__func__.rename_policy)
  br label %90

90:                                               ; preds = %78, %76, %74
  unreachable

91:                                               ; No predecessors!
  br label %92

92:                                               ; preds = %91
  br label %93

93:                                               ; preds = %92, %55
  %94 = load ptr, ptr %10, align 8
  %95 = call ptr @GETSTRUCT(ptr noundef %94)
  %96 = getelementptr inbounds nuw %struct.FormData_pg_policy, ptr %95, i32 0, i32 0
  %97 = load i32, ptr %96, align 4
  store i32 %97, ptr %7, align 4
  %98 = load ptr, ptr %10, align 8
  %99 = call ptr @heap_copytuple(ptr noundef %98)
  store ptr %99, ptr %10, align 8
  %100 = load ptr, ptr %10, align 8
  %101 = call ptr @GETSTRUCT(ptr noundef %100)
  %102 = getelementptr inbounds nuw %struct.FormData_pg_policy, ptr %101, i32 0, i32 1
  %103 = load ptr, ptr %3, align 8
  %104 = getelementptr inbounds nuw %struct.RenameStmt, ptr %103, i32 0, i32 6
  %105 = load ptr, ptr %104, align 8
  call void @namestrcpy(ptr noundef %102, ptr noundef %105)
  %106 = load ptr, ptr %4, align 8
  %107 = load ptr, ptr %10, align 8
  %108 = getelementptr inbounds nuw %struct.HeapTupleData, ptr %107, i32 0, i32 1
  %109 = load ptr, ptr %10, align 8
  call void @CatalogTupleUpdate(ptr noundef %106, ptr noundef %108, ptr noundef %109)
  br label %110

110:                                              ; preds = %93
  %111 = load ptr, ptr @object_access_hook, align 8
  %112 = icmp ne ptr %111, null
  br i1 %112, label %113, label %115

113:                                              ; preds = %110
  %114 = load i32, ptr %7, align 4
  call void @RunObjectPostAlterHook(i32 noundef 3256, i32 noundef %114, i32 noundef 0, i32 noundef 0, i1 noundef zeroext false)
  br label %115

115:                                              ; preds = %113, %110
  br label %116

116:                                              ; preds = %115
  br label %117

117:                                              ; preds = %116
  br label %118

118:                                              ; preds = %117
  %119 = getelementptr inbounds nuw %struct.ObjectAddress, ptr %2, i32 0, i32 0
  store i32 3256, ptr %119, align 4
  %120 = load i32, ptr %7, align 4
  %121 = getelementptr inbounds nuw %struct.ObjectAddress, ptr %2, i32 0, i32 1
  store i32 %120, ptr %121, align 4
  %122 = getelementptr inbounds nuw %struct.ObjectAddress, ptr %2, i32 0, i32 2
  store i32 0, ptr %122, align 4
  br label %123

123:                                              ; preds = %118
  br label %124

124:                                              ; preds = %123
  %125 = load ptr, ptr %5, align 8
  call void @CacheInvalidateRelcache(ptr noundef %125)
  %126 = load ptr, ptr %9, align 8
  call void @systable_endscan(ptr noundef %126)
  %127 = load ptr, ptr %4, align 8
  call void @table_close(ptr noundef %127, i32 noundef 3)
  %128 = load ptr, ptr %5, align 8
  call void @relation_close(ptr noundef %128, i32 noundef 0)
  call void @llvm.lifetime.end.p0(i64 8, ptr %10) #8
  call void @llvm.lifetime.end.p0(i64 8, ptr %9) #8
  call void @llvm.lifetime.end.p0(i64 144, ptr %8) #8
  call void @llvm.lifetime.end.p0(i64 4, ptr %7) #8
  call void @llvm.lifetime.end.p0(i64 4, ptr %6) #8
  call void @llvm.lifetime.end.p0(i64 8, ptr %5) #8
  call void @llvm.lifetime.end.p0(i64 8, ptr %4) #8
  call void @llvm.memcpy.p0.p0.i64(ptr align 8 %11, ptr align 4 %2, i64 12, i1 false)
  %129 = load { i64, i32 }, ptr %11, align 8
  ret { i64, i32 } %129
}