; Function Attrs: nounwind uwtable
define dso_local { i64, i32 } @rename_policy(ptr noundef %0) local_unnamed_addr #0 {
  %2 = alloca [2 x %struct.ScanKeyData], align 16
  call void @llvm.lifetime.start.p0(i64 144, ptr nonnull %2) #8
  %3 = getelementptr inbounds nuw i8, ptr %0, i64 16
  %4 = load ptr, ptr %3, align 8
  %5 = tail call i32 @RangeVarGetRelidExtended(ptr noundef %4, i32 noundef 8, i32 noundef 0, ptr noundef nonnull @RangeVarCallbackForPolicy, ptr noundef %0) #8
  %6 = tail call ptr @relation_open(i32 noundef %5, i32 noundef 0) #8
  %7 = tail call ptr @table_open(i32 noundef 3256, i32 noundef 3) #8
  %8 = zext i32 %5 to i64
  call void @ScanKeyInit(ptr noundef nonnull %2, i16 noundef signext 3, i16 noundef zeroext 3, i32 noundef 184, i64 noundef %8) #8
  %9 = getelementptr inbounds nuw i8, ptr %2, i64 72
  %10 = getelementptr inbounds nuw i8, ptr %0, i64 40
  %11 = load ptr, ptr %10, align 8
  %12 = ptrtoint ptr %11 to i64
  call void @ScanKeyInit(ptr noundef nonnull %9, i16 noundef signext 2, i16 noundef zeroext 3, i32 noundef 62, i64 noundef %12) #8
  %13 = call ptr @systable_beginscan(ptr noundef %7, i32 noundef 3258, i1 noundef zeroext true, ptr noundef null, i32 noundef 2, ptr noundef nonnull %2) #8
  %14 = call ptr @systable_getnext(ptr noundef %13) #8
  %.not = icmp eq ptr %14, null
  br i1 %.not, label %23, label %15

15:                                               ; preds = %1
  %16 = call zeroext i1 @errstart_cold(i32 noundef 21, ptr noundef null) #9
  call void @llvm.assume(i1 %16)
  %17 = call i32 @errcode(i32 noundef 290948) #8
  %18 = load ptr, ptr %10, align 8
  %19 = getelementptr inbounds nuw i8, ptr %6, i64 56
  %20 = load ptr, ptr %19, align 8
  %21 = getelementptr inbounds nuw i8, ptr %20, i64 4
  %22 = call i32 (ptr, ...) @errmsg(ptr noundef nonnull @.str.9, ptr noundef %18, ptr noundef nonnull %21) #8
  call void @errfinish(ptr noundef nonnull @.str.2, i32 noundef 1139, ptr noundef nonnull @__func__.rename_policy) #8
  unreachable

23:                                               ; preds = %1
  call void @systable_endscan(ptr noundef %13) #8
  call void @ScanKeyInit(ptr noundef nonnull %2, i16 noundef signext 3, i16 noundef zeroext 3, i32 noundef 184, i64 noundef %8) #8
  %24 = getelementptr inbounds nuw i8, ptr %0, i64 32
  %25 = load ptr, ptr %24, align 8
  %26 = ptrtoint ptr %25 to i64
  call void @ScanKeyInit(ptr noundef nonnull %9, i16 noundef signext 2, i16 noundef zeroext 3, i32 noundef 62, i64 noundef %26) #8
  %27 = call ptr @systable_beginscan(ptr noundef %7, i32 noundef 3258, i1 noundef zeroext true, ptr noundef null, i32 noundef 2, ptr noundef nonnull %2) #8
  %28 = call ptr @systable_getnext(ptr noundef %27) #8
  %.not31 = icmp eq ptr %28, null
  br i1 %.not31, label %29, label %37

29:                                               ; preds = %23
  %30 = call zeroext i1 @errstart_cold(i32 noundef 21, ptr noundef null) #9
  call void @llvm.assume(i1 %30)
  %31 = call i32 @errcode(i32 noundef 67137668) #8
  %32 = load ptr, ptr %24, align 8
  %33 = getelementptr inbounds nuw i8, ptr %6, i64 56
  %34 = load ptr, ptr %33, align 8
  %35 = getelementptr inbounds nuw i8, ptr %34, i64 4
  %36 = call i32 (ptr, ...) @errmsg(ptr noundef nonnull @.str.10, ptr noundef %32, ptr noundef nonnull %35) #8
  call void @errfinish(ptr noundef nonnull @.str.2, i32 noundef 1167, ptr noundef nonnull @__func__.rename_policy) #8
  unreachable

37:                                               ; preds = %23
  %38 = getelementptr i8, ptr %28, i64 16
  %.val33 = load ptr, ptr %38, align 8
  %39 = getelementptr inbounds nuw i8, ptr %.val33, i64 22
  %40 = load i8, ptr %39, align 2
  %41 = zext i8 %40 to i64
  %42 = getelementptr inbounds nuw i8, ptr %.val33, i64 %41
  %43 = load i32, ptr %42, align 4
  %44 = call ptr @heap_copytuple(ptr noundef nonnull %28) #8
  %45 = getelementptr i8, ptr %44, i64 16
  %.val = load ptr, ptr %45, align 8
  %46 = getelementptr inbounds nuw i8, ptr %.val, i64 22
  %47 = load i8, ptr %46, align 2
  %48 = zext i8 %47 to i64
  %49 = getelementptr inbounds nuw i8, ptr %.val, i64 %48
  %50 = getelementptr inbounds nuw i8, ptr %49, i64 4
  %51 = load ptr, ptr %10, align 8
  call void @namestrcpy(ptr noundef nonnull %50, ptr noundef %51) #8
  %52 = getelementptr inbounds nuw i8, ptr %44, i64 4
  call void @CatalogTupleUpdate(ptr noundef %7, ptr noundef nonnull %52, ptr noundef %44) #8
  %53 = load ptr, ptr @object_access_hook, align 8
  %.not32 = icmp eq ptr %53, null
  br i1 %.not32, label %55, label %54

54:                                               ; preds = %37
  call void @RunObjectPostAlterHook(i32 noundef 3256, i32 noundef %43, i32 noundef 0, i32 noundef 0, i1 noundef zeroext false) #8
  br label %55

55:                                               ; preds = %37, %54
  call void @CacheInvalidateRelcache(ptr noundef %6) #8
  call void @systable_endscan(ptr noundef %27) #8
  call void @table_close(ptr noundef %7, i32 noundef 3) #8
  call void @relation_close(ptr noundef %6, i32 noundef 0) #8
  call void @llvm.lifetime.end.p0(i64 144, ptr nonnull %2) #8
  %.sroa.230.0.insert.ext = zext i32 %43 to i64
  %.sroa.230.0.insert.shift = shl nuw i64 %.sroa.230.0.insert.ext, 32
  %.sroa.029.0.insert.insert = or disjoint i64 %.sroa.230.0.insert.shift, 3256
  %.fca.0.insert = insertvalue { i64, i32 } poison, i64 %.sroa.029.0.insert.insert, 0
  %.fca.1.insert = insertvalue { i64, i32 } %.fca.0.insert, i32 0, 1
  ret { i64, i32 } %.fca.1.insert
}